target datalayout = "e-m:e-p270:32:32-p271:32:32-p272:64:64-i64:64-i128:128-f80:128-n8:16:32:64-S128"
target triple = "x86_64-pc-linux-gnu"

%struct.AVRational = type { i32, i32 }
%struct.AVChannelLayout = type { i32, i32, %union.anon, ptr }
%union.anon = type { i64 }
%struct.AVFilterContext = type { ptr, ptr, ptr, ptr, ptr, i32, ptr, ptr, i32, ptr, ptr, i32, i32, ptr, ptr, ptr, ptr, i32, ptr, i32, i32 }
%struct.BufferSourceContext = type { ptr, %struct.AVRational, %struct.AVRational, i32, i32, i32, i32, i32, i32, i32, i32, i32, i32, i32, %struct.AVRational, ptr, i32, i32, i32, %struct.AVChannelLayout, ptr, i32, i32, i64, i32, i32 }
%struct.AVFilterLink = type { ptr, ptr, ptr, ptr, i32, i32, i32, i32, %struct.AVRational, i32, i32, i32, %struct.AVChannelLayout, %struct.AVRational, ptr, i32, %struct.AVFilterFormatsConfig, %struct.AVFilterFormatsConfig }
%struct.AVFilterFormatsConfig = type { ptr, ptr, ptr, ptr, ptr }
%struct.AVPixFmtDescriptor = type { ptr, i8, i8, i8, i64, [4 x %struct.AVComponentDescriptor], ptr }
%struct.AVComponentDescriptor = type { i32, i32, i32, i32, i32 }
%struct.AVBufferRef = type { ptr, ptr, i64 }
%struct.AVHWFramesContext = type { ptr, ptr, ptr, ptr, ptr, ptr, ptr, i32, i32, i32, i32, i32 }

; Function Attrs: nounwind uwtable
define internal i32 @query_formats(ptr noundef %0, ptr noundef %1, ptr noundef %2) #0 {
  %4 = alloca i32, align 4
  %5 = alloca ptr, align 8
  %6 = alloca ptr, align 8
  %7 = alloca ptr, align 8
  %8 = alloca ptr, align 8
  %9 = alloca ptr, align 8
  %10 = alloca ptr, align 8
  %11 = alloca ptr, align 8
  %12 = alloca ptr, align 8
  %13 = alloca ptr, align 8
  %14 = alloca i32, align 4
  %15 = alloca i32, align 4
  %16 = alloca i32, align 4
  store ptr %0, ptr %5, align 8, !tbaa !19
  store ptr %1, ptr %6, align 8, !tbaa !122
  store ptr %2, ptr %7, align 8, !tbaa !122
  call void @llvm.lifetime.start.p0(i64 8, ptr %8) #7
  %17 = load ptr, ptr %5, align 8, !tbaa !19
  %18 = getelementptr inbounds nuw %struct.AVFilterContext, ptr %17, i32 0, i32 9
  %19 = load ptr, ptr %18, align 8, !tbaa !21
  store ptr %19, ptr %8, align 8, !tbaa !31
  call void @llvm.lifetime.start.p0(i64 8, ptr %9) #7
  store ptr null, ptr %9, align 8, !tbaa !124
  call void @llvm.lifetime.start.p0(i64 8, ptr %10) #7
  store ptr null, ptr %10, align 8, !tbaa !125
  call void @llvm.lifetime.start.p0(i64 8, ptr %11) #7
  store ptr null, ptr %11, align 8, !tbaa !125
  call void @llvm.lifetime.start.p0(i64 8, ptr %12) #7
  store ptr null, ptr %12, align 8, !tbaa !125
  call void @llvm.lifetime.start.p0(i64 8, ptr %13) #7
  store ptr null, ptr %13, align 8, !tbaa !125
  call void @llvm.lifetime.start.p0(i64 4, ptr %14) #7
  %20 = load ptr, ptr %5, align 8, !tbaa !19
  %21 = getelementptr inbounds nuw %struct.AVFilterContext, ptr %20, i32 0, i32 7
  %22 = load ptr, ptr %21, align 8, !tbaa !84
  %23 = getelementptr inbounds ptr, ptr %22, i64 0
  %24 = load ptr, ptr %23, align 8, !tbaa !85
  %25 = getelementptr inbounds nuw %struct.AVFilterLink, ptr %24, i32 0, i32 4
  %26 = load i32, ptr %25, align 8, !tbaa !87
  switch i32 %26, label %172 [
    i32 0, label %27
    i32 1, label %125
  ]

27:                                               ; preds = %3
  call void @llvm.lifetime.start.p0(i64 4, ptr %15) #7
  %28 = load ptr, ptr %8, align 8, !tbaa !31
  %29 = getelementptr inbounds nuw %struct.BufferSourceContext, ptr %28, i32 0, i32 8
  %30 = load i32, ptr %29, align 4, !tbaa !45
  store i32 %30, ptr %15, align 4, !tbaa !36
  %31 = load i32, ptr %15, align 4, !tbaa !36
  %32 = call ptr @av_pix_fmt_desc_get(i32 noundef %31)
  %33 = getelementptr inbounds nuw %struct.AVPixFmtDescriptor, ptr %32, i32 0, i32 4
  %34 = load i64, ptr %33, align 8, !tbaa !114
  %35 = and i64 %34, 8
  %36 = icmp ne i64 %35, 0
  br i1 %36, label %37, label %45

37:                                               ; preds = %27
  %38 = load ptr, ptr %8, align 8, !tbaa !31
  %39 = getelementptr inbounds nuw %struct.BufferSourceContext, ptr %38, i32 0, i32 15
  %40 = load ptr, ptr %39, align 8, !tbaa !57
  %41 = getelementptr inbounds nuw %struct.AVBufferRef, ptr %40, i32 0, i32 1
  %42 = load ptr, ptr %41, align 8, !tbaa !126
  %43 = getelementptr inbounds nuw %struct.AVHWFramesContext, ptr %42, i32 0, i32 9
  %44 = load i32, ptr %43, align 8, !tbaa !129
  store i32 %44, ptr %15, align 4, !tbaa !36
  br label %45

45:                                               ; preds = %37, %27
  %46 = load ptr, ptr %8, align 8, !tbaa !31
  %47 = getelementptr inbounds nuw %struct.BufferSourceContext, ptr %46, i32 0, i32 8
  %48 = load i32, ptr %47, align 4, !tbaa !45
  %49 = sext i32 %48 to i64
  %50 = call i32 @ff_add_format(ptr noundef %10, i64 noundef %49)
  store i32 %50, ptr %14, align 4, !tbaa !36
  %51 = icmp slt i32 %50, 0
  br i1 %51, label %59, label %52

52:                                               ; preds = %45
  %53 = load ptr, ptr %5, align 8, !tbaa !19
  %54 = load ptr, ptr %6, align 8, !tbaa !122
  %55 = load ptr, ptr %7, align 8, !tbaa !122
  %56 = load ptr, ptr %10, align 8, !tbaa !125
  %57 = call i32 @ff_set_common_formats2(ptr noundef %53, ptr noundef %54, ptr noundef %55, ptr noundef %56)
  store i32 %57, ptr %14, align 4, !tbaa !36
  %58 = icmp slt i32 %57, 0
  br i1 %58, label %59, label %61

59:                                               ; preds = %52, %45
  %60 = load i32, ptr %14, align 4, !tbaa !36
  store i32 %60, ptr %4, align 4
  store i32 1, ptr %16, align 4
  br label %123

61:                                               ; preds = %52
  %62 = load i32, ptr %15, align 4, !tbaa !36
  %63 = call i32 @ff_fmt_is_regular_yuv(i32 noundef %62)
  %64 = icmp ne i32 %63, 0
  br i1 %64, label %65, label %122

65:                                               ; preds = %61
  %66 = load ptr, ptr %8, align 8, !tbaa !31
  %67 = getelementptr inbounds nuw %struct.BufferSourceContext, ptr %66, i32 0, i32 10
  %68 = load i32, ptr %67, align 4, !tbaa !59
  %69 = zext i32 %68 to i64
  %70 = call i32 @ff_add_format(ptr noundef %12, i64 noundef %69)
  store i32 %70, ptr %14, align 4, !tbaa !36
  %71 = icmp slt i32 %70, 0
  br i1 %71, label %79, label %72

72:                                               ; preds = %65
  %73 = load ptr, ptr %5, align 8, !tbaa !19
  %74 = load ptr, ptr %6, align 8, !tbaa !122
  %75 = load ptr, ptr %7, align 8, !tbaa !122
  %76 = load ptr, ptr %12, align 8, !tbaa !125
  %77 = call i32 @ff_set_common_color_spaces2(ptr noundef %73, ptr noundef %74, ptr noundef %75, ptr noundef %76)
  store i32 %77, ptr %14, align 4, !tbaa !36
  %78 = icmp slt i32 %77, 0
  br i1 %78, label %79, label %81

79:                                               ; preds = %72, %65
  %80 = load i32, ptr %14, align 4, !tbaa !36
  store i32 %80, ptr %4, align 4
  store i32 1, ptr %16, align 4
  br label %123

81:                                               ; preds = %72
  %82 = load i32, ptr %15, align 4, !tbaa !36
  %83 = call i32 @ff_fmt_is_forced_full_range(i32 noundef %82)
  %84 = icmp ne i32 %83, 0
  br i1 %84, label %85, label %91

85:                                               ; preds = %81
  %86 = call i32 @ff_add_format(ptr noundef %13, i64 noundef 2)
  store i32 %86, ptr %14, align 4, !tbaa !36
  %87 = icmp slt i32 %86, 0
  br i1 %87, label %88, label %90

88:                                               ; preds = %85
  %89 = load i32, ptr %14, align 4, !tbaa !36
  store i32 %89, ptr %4, align 4
  store i32 1, ptr %16, align 4
  br label %123

90:                                               ; preds = %85
  br label %112

91:                                               ; preds = %81
  %92 = load ptr, ptr %8, align 8, !tbaa !31
  %93 = getelementptr inbounds nuw %struct.BufferSourceContext, ptr %92, i32 0, i32 12
  %94 = load i32, ptr %93, align 4, !tbaa !61
  %95 = zext i32 %94 to i64
  %96 = call i32 @ff_add_format(ptr noundef %13, i64 noundef %95)
  store i32 %96, ptr %14, align 4, !tbaa !36
  %97 = icmp slt i32 %96, 0
  br i1 %97, label %98, label %100

98:                                               ; preds = %91
  %99 = load i32, ptr %14, align 4, !tbaa !36
  store i32 %99, ptr %4, align 4
  store i32 1, ptr %16, align 4
  br label %123

100:                                              ; preds = %91
  %101 = load ptr, ptr %8, align 8, !tbaa !31
  %102 = getelementptr inbounds nuw %struct.BufferSourceContext, ptr %101, i32 0, i32 12
  %103 = load i32, ptr %102, align 4, !tbaa !61
  %104 = icmp eq i32 %103, 0
  br i1 %104, label %105, label %111

105:                                              ; preds = %100
  %106 = call i32 @ff_add_format(ptr noundef %13, i64 noundef 1)
  store i32 %106, ptr %14, align 4, !tbaa !36
  %107 = icmp slt i32 %106, 0
  br i1 %107, label %108, label %110

108:                                              ; preds = %105
  %109 = load i32, ptr %14, align 4, !tbaa !36
  store i32 %109, ptr %4, align 4
  store i32 1, ptr %16, align 4
  br label %123

110:                                              ; preds = %105
  br label %111

111:                                              ; preds = %110, %100
  br label %112

112:                                              ; preds = %111, %90
  %113 = load ptr, ptr %5, align 8, !tbaa !19
  %114 = load ptr, ptr %6, align 8, !tbaa !122
  %115 = load ptr, ptr %7, align 8, !tbaa !122
  %116 = load ptr, ptr %13, align 8, !tbaa !125
  %117 = call i32 @ff_set_common_color_ranges2(ptr noundef %113, ptr noundef %114, ptr noundef %115, ptr noundef %116)
  store i32 %117, ptr %14, align 4, !tbaa !36
  %118 = icmp slt i32 %117, 0
  br i1 %118, label %119, label %121

119:                                              ; preds = %112
  %120 = load i32, ptr %14, align 4, !tbaa !36
  store i32 %120, ptr %4, align 4
  store i32 1, ptr %16, align 4
  br label %123

121:                                              ; preds = %112
  br label %122

122:                                              ; preds = %121, %61
  store i32 2, ptr %16, align 4
  br label %123

123:                                              ; preds = %122, %119, %108, %98, %88, %79, %59
  call void @llvm.lifetime.end.p0(i64 4, ptr %15) #7
  %124 = load i32, ptr %16, align 4
  switch i32 %124, label %174 [
    i32 2, label %173
  ]

125:                                              ; preds = %3
  %126 = load ptr, ptr %8, align 8, !tbaa !31
  %127 = getelementptr inbounds nuw %struct.BufferSourceContext, ptr %126, i32 0, i32 17
  %128 = load i32, ptr %127, align 4, !tbaa !62
  %129 = sext i32 %128 to i64
  %130 = call i32 @ff_add_format(ptr noundef %10, i64 noundef %129)
  store i32 %130, ptr %14, align 4, !tbaa !36
  %131 = icmp slt i32 %130, 0
  br i1 %131, label %153, label %132

132:                                              ; preds = %125
  %133 = load ptr, ptr %5, align 8, !tbaa !19
  %134 = load ptr, ptr %6, align 8, !tbaa !122
  %135 = load ptr, ptr %7, align 8, !tbaa !122
  %136 = load ptr, ptr %10, align 8, !tbaa !125
  %137 = call i32 @ff_set_common_formats2(ptr noundef %133, ptr noundef %134, ptr noundef %135, ptr noundef %136)
  store i32 %137, ptr %14, align 4, !tbaa !36
  %138 = icmp slt i32 %137, 0
  br i1 %138, label %153, label %139

139:                                              ; preds = %132
  %140 = load ptr, ptr %8, align 8, !tbaa !31
  %141 = getelementptr inbounds nuw %struct.BufferSourceContext, ptr %140, i32 0, i32 16
  %142 = load i32, ptr %141, align 8, !tbaa !64
  %143 = sext i32 %142 to i64
  %144 = call i32 @ff_add_format(ptr noundef %11, i64 noundef %143)
  store i32 %144, ptr %14, align 4, !tbaa !36
  %145 = icmp slt i32 %144, 0
  br i1 %145, label %153, label %146

146:                                              ; preds = %139
  %147 = load ptr, ptr %5, align 8, !tbaa !19
  %148 = load ptr, ptr %6, align 8, !tbaa !122
  %149 = load ptr, ptr %7, align 8, !tbaa !122
  %150 = load ptr, ptr %11, align 8, !tbaa !125
  %151 = call i32 @ff_set_common_samplerates2(ptr noundef %147, ptr noundef %148, ptr noundef %149, ptr noundef %150)
  store i32 %151, ptr %14, align 4, !tbaa !36
  %152 = icmp slt i32 %151, 0
  br i1 %152, label %153, label %155

153:                                              ; preds = %146, %139, %132, %125
  %154 = load i32, ptr %14, align 4, !tbaa !36
  store i32 %154, ptr %4, align 4
  store i32 1, ptr %16, align 4
  br label %174

155:                                              ; preds = %146
  %156 = load ptr, ptr %8, align 8, !tbaa !31
  %157 = getelementptr inbounds nuw %struct.BufferSourceContext, ptr %156, i32 0, i32 19
  %158 = call i32 @ff_add_channel_layout(ptr noundef %9, ptr noundef %157)
  store i32 %158, ptr %14, align 4, !tbaa !36
  %159 = icmp slt i32 %158, 0
  br i1 %159, label %160, label %162

160:                                              ; preds = %155
  %161 = load i32, ptr %14, align 4, !tbaa !36
  store i32 %161, ptr %4, align 4
  store i32 1, ptr %16, align 4
  br label %174

162:                                              ; preds = %155
  %163 = load ptr, ptr %5, align 8, !tbaa !19
  %164 = load ptr, ptr %6, align 8, !tbaa !122
  %165 = load ptr, ptr %7, align 8, !tbaa !122
  %166 = load ptr, ptr %9, align 8, !tbaa !124
  %167 = call i32 @ff_set_common_channel_layouts2(ptr noundef %163, ptr noundef %164, ptr noundef %165, ptr noundef %166)
  store i32 %167, ptr %14, align 4, !tbaa !36
  %168 = icmp slt i32 %167, 0
  br i1 %168, label %169, label %171

169:                                              ; preds = %162
  %170 = load i32, ptr %14, align 4, !tbaa !36
  store i32 %170, ptr %4, align 4
  store i32 1, ptr %16, align 4
  br label %174

171:                                              ; preds = %162
  br label %173

172:                                              ; preds = %3
  store i32 -22, ptr %4, align 4
  store i32 1, ptr %16, align 4
  br label %174

173:                                              ; preds = %171, %123
  store i32 0, ptr %4, align 4
  store i32 1, ptr %16, align 4
  br label %174

174:                                              ; preds = %173, %172, %169, %160, %153, %123
  call void @llvm.lifetime.end.p0(i64 4, ptr %14) #7
  call void @llvm.lifetime.end.p0(i64 8, ptr %13) #7
  call void @llvm.lifetime.end.p0(i64 8, ptr %12) #7
  call void @llvm.lifetime.end.p0(i64 8, ptr %11) #7
  call void @llvm.lifetime.end.p0(i64 8, ptr %10) #7
  call void @llvm.lifetime.end.p0(i64 8, ptr %9) #7
  call void @llvm.lifetime.end.p0(i64 8, ptr %8) #7
  %175 = load i32, ptr %4, align 4
  ret i32 %175
}