; Function Attrs: nounwind uwtable
define internal range(i32 -2147483648, 1) i32 @query_formats(ptr noundef %0, ptr noundef %1, ptr noundef %2) #0 {
  %4 = alloca ptr, align 8
  %5 = alloca ptr, align 8
  %6 = alloca ptr, align 8
  %7 = alloca ptr, align 8
  %8 = alloca ptr, align 8
  %9 = getelementptr inbounds nuw i8, ptr %0, i64 72
  %10 = load ptr, ptr %9, align 8, !tbaa !17
  call void @llvm.lifetime.start.p0(i64 8, ptr nonnull %4) #6
  store ptr null, ptr %4, align 8, !tbaa !108
  call void @llvm.lifetime.start.p0(i64 8, ptr nonnull %5) #6
  store ptr null, ptr %5, align 8, !tbaa !109
  call void @llvm.lifetime.start.p0(i64 8, ptr nonnull %6) #6
  store ptr null, ptr %6, align 8, !tbaa !109
  call void @llvm.lifetime.start.p0(i64 8, ptr nonnull %7) #6
  store ptr null, ptr %7, align 8, !tbaa !109
  call void @llvm.lifetime.start.p0(i64 8, ptr nonnull %8) #6
  store ptr null, ptr %8, align 8, !tbaa !109
  %11 = getelementptr inbounds nuw i8, ptr %0, i64 56
  %12 = load ptr, ptr %11, align 8, !tbaa !67
  %13 = load ptr, ptr %12, align 8, !tbaa !68
  %14 = getelementptr inbounds nuw i8, ptr %13, i64 32
  %15 = load i32, ptr %14, align 8, !tbaa !78
  switch i32 %15, label %.thread [
    i32 0, label %16
    i32 1, label %72
  ]

16:                                               ; preds = %3
  %17 = getelementptr inbounds nuw i8, ptr %10, i64 44
  %18 = load i32, ptr %17, align 4, !tbaa !37
  %19 = tail call ptr @av_pix_fmt_desc_get(i32 noundef %18) #6
  %20 = getelementptr inbounds nuw i8, ptr %19, i64 16
  %21 = load i64, ptr %20, align 8, !tbaa !100
  %22 = and i64 %21, 8
  %.not = icmp eq i64 %22, 0
  br i1 %.not, label %30, label %23

23:                                               ; preds = %16
  %24 = getelementptr inbounds nuw i8, ptr %10, i64 80
  %25 = load ptr, ptr %24, align 8, !tbaa !49
  %26 = getelementptr inbounds nuw i8, ptr %25, i64 8
  %27 = load ptr, ptr %26, align 8, !tbaa !110
  %28 = getelementptr inbounds nuw i8, ptr %27, i64 64
  %29 = load i32, ptr %28, align 8, !tbaa !113
  br label %30

30:                                               ; preds = %23, %16
  %.042 = phi i32 [ %29, %23 ], [ %18, %16 ]
  %31 = load i32, ptr %17, align 4, !tbaa !37
  %32 = sext i32 %31 to i64
  %33 = call i32 @ff_add_format(ptr noundef nonnull %5, i64 noundef %32) #6
  %34 = icmp slt i32 %33, 0
  br i1 %34, label %.thread, label %35

35:                                               ; preds = %30
  %36 = load ptr, ptr %5, align 8, !tbaa !109
  %37 = call i32 @ff_set_common_formats2(ptr noundef nonnull %0, ptr noundef %1, ptr noundef %2, ptr noundef %36) #6
  %38 = icmp slt i32 %37, 0
  br i1 %38, label %.thread, label %39

39:                                               ; preds = %35
  %40 = call i32 @ff_fmt_is_regular_yuv(i32 noundef %.042) #6
  %.not60 = icmp eq i32 %40, 0
  br i1 %.not60, label %100, label %41

41:                                               ; preds = %39
  %42 = getelementptr inbounds nuw i8, ptr %10, i64 52
  %43 = load i32, ptr %42, align 4, !tbaa !51
  %44 = zext i32 %43 to i64
  %45 = call i32 @ff_add_format(ptr noundef nonnull %7, i64 noundef %44) #6
  %46 = icmp slt i32 %45, 0
  br i1 %46, label %.thread, label %47

47:                                               ; preds = %41
  %48 = load ptr, ptr %7, align 8, !tbaa !109
  %49 = call i32 @ff_set_common_color_spaces2(ptr noundef nonnull %0, ptr noundef %1, ptr noundef %2, ptr noundef %48) #6
  %50 = icmp slt i32 %49, 0
  br i1 %50, label %.thread, label %51

51:                                               ; preds = %47
  %52 = call i32 @ff_fmt_is_forced_full_range(i32 noundef %.042) #6
  %.not61 = icmp eq i32 %52, 0
  br i1 %.not61, label %56, label %53

53:                                               ; preds = %51
  %54 = call i32 @ff_add_format(ptr noundef nonnull %8, i64 noundef 2) #6
  %55 = icmp slt i32 %54, 0
  br i1 %55, label %.thread, label %68

56:                                               ; preds = %51
  %57 = getelementptr inbounds nuw i8, ptr %10, i64 60
  %58 = load i32, ptr %57, align 4, !tbaa !53
  %59 = zext i32 %58 to i64
  %60 = call i32 @ff_add_format(ptr noundef nonnull %8, i64 noundef %59) #6
  %61 = icmp slt i32 %60, 0
  br i1 %61, label %.thread, label %62

62:                                               ; preds = %56
  %63 = load i32, ptr %57, align 4, !tbaa !53
  %64 = icmp eq i32 %63, 0
  br i1 %64, label %65, label %68

65:                                               ; preds = %62
  %66 = call i32 @ff_add_format(ptr noundef nonnull %8, i64 noundef 1) #6
  %67 = icmp slt i32 %66, 0
  br i1 %67, label %.thread, label %68

68:                                               ; preds = %62, %65, %53
  %69 = load ptr, ptr %8, align 8, !tbaa !109
  %70 = call i32 @ff_set_common_color_ranges2(ptr noundef nonnull %0, ptr noundef %1, ptr noundef %2, ptr noundef %69) #6
  %71 = icmp slt i32 %70, 0
  br i1 %71, label %.thread, label %100

72:                                               ; preds = %3
  %73 = getelementptr inbounds nuw i8, ptr %10, i64 92
  %74 = load i32, ptr %73, align 4, !tbaa !54
  %75 = sext i32 %74 to i64
  %76 = call i32 @ff_add_format(ptr noundef nonnull %5, i64 noundef %75) #6
  %77 = icmp slt i32 %76, 0
  br i1 %77, label %.thread, label %78

78:                                               ; preds = %72
  %79 = load ptr, ptr %5, align 8, !tbaa !109
  %80 = call i32 @ff_set_common_formats2(ptr noundef nonnull %0, ptr noundef %1, ptr noundef %2, ptr noundef %79) #6
  %81 = icmp slt i32 %80, 0
  br i1 %81, label %.thread, label %82

82:                                               ; preds = %78
  %83 = getelementptr inbounds nuw i8, ptr %10, i64 88
  %84 = load i32, ptr %83, align 8, !tbaa !56
  %85 = sext i32 %84 to i64
  %86 = call i32 @ff_add_format(ptr noundef nonnull %6, i64 noundef %85) #6
  %87 = icmp slt i32 %86, 0
  br i1 %87, label %.thread, label %88

88:                                               ; preds = %82
  %89 = load ptr, ptr %6, align 8, !tbaa !109
  %90 = call i32 @ff_set_common_samplerates2(ptr noundef nonnull %0, ptr noundef %1, ptr noundef %2, ptr noundef %89) #6
  %91 = icmp slt i32 %90, 0
  br i1 %91, label %.thread, label %92

92:                                               ; preds = %88
  %93 = getelementptr inbounds nuw i8, ptr %10, i64 104
  %94 = call i32 @ff_add_channel_layout(ptr noundef nonnull %4, ptr noundef nonnull %93) #6
  %95 = icmp slt i32 %94, 0
  br i1 %95, label %.thread, label %96

96:                                               ; preds = %92
  %97 = load ptr, ptr %4, align 8, !tbaa !108
  %98 = call i32 @ff_set_common_channel_layouts2(ptr noundef nonnull %0, ptr noundef %1, ptr noundef %2, ptr noundef %97) #6
  %99 = icmp slt i32 %98, 0
  br i1 %99, label %.thread, label %100

100:                                              ; preds = %68, %39, %96
  br label %.thread

.thread:                                          ; preds = %68, %65, %56, %53, %41, %47, %30, %35, %3, %96, %92, %72, %78, %82, %88, %100
  %.145 = phi i32 [ 0, %100 ], [ %76, %72 ], [ %80, %78 ], [ %86, %82 ], [ %90, %88 ], [ %94, %92 ], [ %98, %96 ], [ -22, %3 ], [ %70, %68 ], [ %66, %65 ], [ %60, %56 ], [ %54, %53 ], [ %49, %47 ], [ %45, %41 ], [ %37, %35 ], [ %33, %30 ]
  call void @llvm.lifetime.end.p0(i64 8, ptr nonnull %8) #6
  call void @llvm.lifetime.end.p0(i64 8, ptr nonnull %7) #6
  call void @llvm.lifetime.end.p0(i64 8, ptr nonnull %6) #6
  call void @llvm.lifetime.end.p0(i64 8, ptr nonnull %5) #6
  call void @llvm.lifetime.end.p0(i64 8, ptr nonnull %4) #6
  ret i32 %.145
}